; Function Attrs: mustprogress nounwind uwtable
define internal fastcc void @_ZNSt8_Rb_treeIPN4llvm6RecordESt4pairIKS2_PN12_GLOBAL__N_19ClassInfoEESt10_Select1stIS8_ENS0_14LessRecordByIDESaIS8_EE8_M_eraseEPSt13_Rb_tree_nodeIS8_E(ptr noundef %0) unnamed_addr #0 align 2 {
  %.not1 = icmp eq ptr %0, null
  br i1 %.not1, label %._crit_edge, label %.lr.ph

.lr.ph:                                           ; preds = %1, %.lr.ph
  %.02 = phi ptr [ %.0.val, %.lr.ph ], [ %0, %1 ]
  %2 = getelementptr i8, ptr %.02, i64 24
  %.0.val6 = load ptr, ptr %2, align 8
  tail call fastcc void @_ZNSt8_Rb_treeIPN4llvm6RecordESt4pairIKS2_PN12_GLOBAL__N_19ClassInfoEESt10_Select1stIS8_ENS0_14LessRecordByIDESaIS8_EE8_M_eraseEPSt13_Rb_tree_nodeIS8_E(ptr noundef %.0.val6)
  %3 = getelementptr i8, ptr %.02, i64 16
  %.0.val = load ptr, ptr %3, align 8
  tail call void @_ZdlPvm(ptr noundef nonnull %.02, i64 noundef 48) #26
  %.not = icmp eq ptr %.0.val, null
  br i1 %.not, label %._crit_edge, label %.lr.ph, !llvm.loop !653

._crit_edge:                                      ; preds = %.lr.ph, %1
  ret void
}